Certificate:
    Data:
        Version: 3 (0x2)
        Serial Number:
            51:ac:cc:32:5a:6b:a3:26:13:ba:ea:10:54:fe:df:29
        Signature Algorithm: ecdsa-with-SHA512
        Issuer: CN=Easy-RSA CA
        Validity
            Not Before: May 24 16:18:49 2022 GMT
            Not After : May  8 16:18:49 2025 GMT
        Subject: C=BE, ST=Antwerp, L=Geel, O=teamsixhosting, OU=Community, CN=teamsixhosting
        Subject Public Key Info:
            Public Key Algorithm: rsaEncryption
                RSA Public-Key: (2048 bit)
                Modulus:
                    00:c9:ac:f6:18:e2:62:04:c4:bb:83:1a:c0:90:2d:
                    65:d8:ce:60:89:af:00:33:1f:74:ad:76:b5:20:4c:
                    67:9d:bf:9d:a7:23:c5:f0:85:be:65:6c:98:81:e4:
                    77:aa:8e:c3:0b:ec:90:26:ca:a9:8b:10:27:db:12:
                    d3:29:22:4f:42:b2:09:3e:08:b1:cd:d9:e2:db:7f:
                    57:fc:b7:0b:f5:85:49:a9:c1:7a:b3:4f:47:fb:70:
                    61:aa:ec:21:0f:16:50:99:95:d0:c3:6e:7c:6e:45:
                    49:ae:df:28:4a:8d:d3:97:d8:26:b3:d8:4d:f5:21:
                    2b:4c:db:2f:ae:cc:4e:d5:c7:b0:72:48:33:10:c8:
                    61:ac:9e:28:95:57:dd:04:83:69:c3:bd:8c:ea:6b:
                    80:ff:72:ea:59:51:15:0b:d7:7f:2d:34:bd:74:f8:
                    71:8b:2b:5f:d9:08:e6:c2:85:8b:ad:82:4f:4e:6f:
                    07:e8:51:b2:0e:af:9a:25:db:5a:62:14:3f:d1:7b:
                    d6:6a:5b:9f:59:e8:81:3d:97:22:f2:8a:6b:48:ec:
                    ae:42:42:09:27:ef:2d:45:32:6f:76:75:1b:55:6a:
                    54:97:3b:79:ce:b4:b5:9e:c3:c5:02:72:8b:44:b1:
                    76:34:fb:fd:40:4e:71:27:3f:8b:3d:fd:d8:19:d7:
                    ee:f7
                Exponent: 65537 (0x10001)
        X509v3 extensions:
            X509v3 Basic Constraints: 
                CA:FALSE
            X509v3 Subject Key Identifier: 
                14:11:FF:69:E1:F2:B8:65:10:DD:36:56:A8:BC:05:8A:D6:02:94:0E
            X509v3 Authority Key Identifier: 
                keyid:89:88:BC:37:35:46:35:54:BB:AD:D8:D9:3C:15:8A:3C:73:7F:2B:A3
                DirName:/CN=Easy-RSA CA
                serial:5D:01:F5:AC:B1:D5:04:A6:F5:6C:E9:FC:77:25:76:66:F9:3B:66:F1

            X509v3 Extended Key Usage: 
                TLS Web Server Authentication
            X509v3 Key Usage: 
                Digital Signature, Key Encipherment
            X509v3 Subject Alternative Name: 
                DNS:sammy-server
    Signature Algorithm: ecdsa-with-SHA512
         30:65:02:30:46:86:af:f8:79:60:0b:e3:d8:41:28:a1:96:32:
         23:43:40:98:1b:8d:e2:b0:b8:c7:b5:31:dd:81:30:ab:22:85:
         88:73:18:89:fc:9f:46:de:e7:67:73:ff:8b:79:13:c8:02:31:
         00:d1:9b:46:a0:33:5d:28:6e:7c:df:4f:9e:63:0b:49:2d:99:
         c9:2e:60:2f:dd:4c:cb:22:a3:07:fd:c0:a3:80:8d:2e:b1:3f:
         6e:51:19:da:ee:9e:c1:66:8b:a3:a6:2b:c7
-----BEGIN CERTIFICATE-----
MIIDLTCCArOgAwIBAgIQUazMMlproyYTuuoQVP7fKTAKBggqhkjOPQQDBDAWMRQw
EgYDVQQDDAtFYXN5LVJTQSBDQTAeFw0yMjA1MjQxNjE4NDlaFw0yNTA1MDgxNjE4
NDlaMHIxCzAJBgNVBAYTAkJFMRAwDgYDVQQIDAdBbnR3ZXJwMQ0wCwYDVQQHDARH
ZWVsMRcwFQYDVQQKDA50ZWFtc2l4aG9zdGluZzESMBAGA1UECwwJQ29tbXVuaXR5
MRUwEwYDVQQDDAxzYW1teS1zZXJ2ZXIwggEiMA0GCSqGSIb3DQEBAQUAA4IBDwAw
ggEKAoIBAQDJrPYY4mIExLuDGsCQLWXYzmCJrwAzH3StdrUgTGedv52nI8Xwhb5l
bJiB5HeqjsML7JAmyqmLECfbEtMpIk9Csgk+CLHN2eLbf1f8twv1hUmpwXqzT0f7
cGGq7CEPFlCZldDDbnxuRUmu3yhKjdOX2Caz2E31IStM2y+uzE7Vx7BySDMQyGGs
niiVV90Eg2nDvYzqa4D/cupZURUL138tNL10+HGLK1/ZCObChYutgk9ObwfoUbIO
r5ol21piFD/Re9ZqW59Z6IE9lyLyimtI7K5CQgkn7y1FMm92dRtValSXO3nOtLWe
w8UCcotEsXY0+/1ATnEnP4s9/dgZ1+73AgMBAAGjgbswgbgwCQYDVR0TBAIwADAd
BgNVHQ4EFgQUFBH/aeHyuGUQ3TZWqLwFitYClA4wUQYDVR0jBEowSIAUiYi8NzVG
NVS7rdjZPBWKPHN/K6OhGqQYMBYxFDASBgNVBAMMC0Vhc3ktUlNBIENBghRdAfWs
sdUEpvVs6fx3JXZm+Ttm8TATBgNVHSUEDDAKBggrBgEFBQcDATALBgNVHQ8EBAMC
BaAwFwYDVR0RBBAwDoIMc2FtbXktc2VydmVyMAoGCCqGSM49BAMEA2gAMGUCMEaG
r/h5YAvj2EEooZYyI0NAmBuN4rC4x7Ux3YEwqyKFiHMYifyfRt7nZ3P/i3kTyAIx
ANGbRqAzXShufN9PnmMLSS2ZyS5gL91MyyKjB/3Ao4CNLrE/blEZ2u6ewWaLo6Yr
xw==
-----END CERTIFICATE-----
